; Function Attrs: mustprogress null_pointer_is_valid sspstrong uwtable
define void @_ZN20CaptureCommentDialog10addCommentEv(ptr noundef readonly align 8 captures(none) dereferenceable_or_null(160) %0) #0 align 2 personality ptr @__gxx_personality_v0 {
  %2 = getelementptr inbounds nuw i8, ptr %0, i64 152
  %3 = load ptr, ptr %2, align 8
  %4 = getelementptr inbounds nuw i8, ptr %3, i64 8
  %5 = load ptr, ptr %4, align 8
  %6 = tail call noundef ptr @_ZNK10QTabWidget13currentWidgetEv(ptr noundef align 8 dereferenceable_or_null(40) %5)
  %7 = tail call noundef ptr @_ZNK11QMetaObject4castEPK7QObject(ptr noundef nonnull align 8 dereferenceable_or_null(56) @_ZN23CaptureCommentTabWidget16staticMetaObjectE, ptr noundef %6)
  %.not = icmp eq ptr %7, null
  br i1 %.not, label %14, label %8

8:                                                ; preds = %1
  %9 = tail call noalias noundef dereferenceable_or_null(40) ptr @_Znwm(i64 noundef 40) #17
  invoke void @_ZN14QPlainTextEditC1EP7QWidget(ptr noundef align 8 dereferenceable_or_null(40) %9, ptr noundef nonnull %7)
          to label %10 unwind label %12

10:                                               ; preds = %8
  %11 = tail call noundef i32 @_ZN23CaptureCommentTabWidget6addTabEP7QWidget(ptr noundef nonnull align 8 dereferenceable_or_null(40) %7, ptr noundef %9)
  br label %14

12:                                               ; preds = %8
  %13 = landingpad { ptr, i32 }
          cleanup
  tail call void @_ZdlPvm(ptr noundef %9, i64 noundef 40) #18
  resume { ptr, i32 } %13

14:                                               ; preds = %10, %1
  ret void
}